target datalayout = "e-m:e-p270:32:32-p271:32:32-p272:64:64-i64:64-i128:128-f80:128-n8:16:32:64-S128"
target triple = "x86_64-pc-linux-gnu"

%struct.switch_record_t = type { i32, i32, ptr, ptr, ptr, i16, i16, i16, ptr, ptr, ptr, ptr }

@switch_record_table = dso_local global ptr null, align 8
@switch_record_cnt = dso_local global i32 0, align 4
@switch_levels = dso_local global i32 0, align 4

; Function Attrs: nounwind uwtable
define dso_local void @switch_record_table_destroy() #0 {
  %1 = alloca i32, align 4
  %2 = load ptr, ptr @switch_record_table, align 8
  %3 = icmp ne ptr %2, null
  br i1 %3, label %5, label %4

4:                                                ; preds = %0
  br label %68

5:                                                ; preds = %0
  call void @llvm.lifetime.start.p0(i64 4, ptr %1) #6
  store i32 0, ptr %1, align 4
  br label %6

6:                                                ; preds = %64, %5
  %7 = load i32, ptr %1, align 4
  %8 = load i32, ptr @switch_record_cnt, align 4
  %9 = icmp slt i32 %7, %8
  br i1 %9, label %11, label %10

10:                                               ; preds = %6
  call void @llvm.lifetime.end.p0(i64 4, ptr %1) #6
  br label %67

11:                                               ; preds = %6
  %12 = load ptr, ptr @switch_record_table, align 8
  %13 = load i32, ptr %1, align 4
  %14 = sext i32 %13 to i64
  %15 = getelementptr inbounds %struct.switch_record_t, ptr %12, i64 %14
  %16 = getelementptr inbounds nuw %struct.switch_record_t, ptr %15, i32 0, i32 2
  call void @slurm_xfree(ptr noundef %16)
  %17 = load ptr, ptr @switch_record_table, align 8
  %18 = load i32, ptr %1, align 4
  %19 = sext i32 %18 to i64
  %20 = getelementptr inbounds %struct.switch_record_t, ptr %17, i64 %19
  %21 = getelementptr inbounds nuw %struct.switch_record_t, ptr %20, i32 0, i32 4
  call void @slurm_xfree(ptr noundef %21)
  %22 = load ptr, ptr @switch_record_table, align 8
  %23 = load i32, ptr %1, align 4
  %24 = sext i32 %23 to i64
  %25 = getelementptr inbounds %struct.switch_record_t, ptr %22, i64 %24
  %26 = getelementptr inbounds nuw %struct.switch_record_t, ptr %25, i32 0, i32 8
  call void @slurm_xfree(ptr noundef %26)
  %27 = load ptr, ptr @switch_record_table, align 8
  %28 = load i32, ptr %1, align 4
  %29 = sext i32 %28 to i64
  %30 = getelementptr inbounds %struct.switch_record_t, ptr %27, i64 %29
  %31 = getelementptr inbounds nuw %struct.switch_record_t, ptr %30, i32 0, i32 9
  call void @slurm_xfree(ptr noundef %31)
  %32 = load ptr, ptr @switch_record_table, align 8
  %33 = load i32, ptr %1, align 4
  %34 = sext i32 %33 to i64
  %35 = getelementptr inbounds %struct.switch_record_t, ptr %32, i64 %34
  %36 = getelementptr inbounds nuw %struct.switch_record_t, ptr %35, i32 0, i32 10
  call void @slurm_xfree(ptr noundef %36)
  %37 = load ptr, ptr @switch_record_table, align 8
  %38 = load i32, ptr %1, align 4
  %39 = sext i32 %38 to i64
  %40 = getelementptr inbounds %struct.switch_record_t, ptr %37, i64 %39
  %41 = getelementptr inbounds nuw %struct.switch_record_t, ptr %40, i32 0, i32 11
  call void @slurm_xfree(ptr noundef %41)
  br label %42

42:                                               ; preds = %11
  %43 = load ptr, ptr @switch_record_table, align 8
  %44 = load i32, ptr %1, align 4
  %45 = sext i32 %44 to i64
  %46 = getelementptr inbounds %struct.switch_record_t, ptr %43, i64 %45
  %47 = getelementptr inbounds nuw %struct.switch_record_t, ptr %46, i32 0, i32 3
  %48 = load ptr, ptr %47, align 8
  %49 = icmp ne ptr %48, null
  br i1 %49, label %50, label %56

50:                                               ; preds = %42
  %51 = load ptr, ptr @switch_record_table, align 8
  %52 = load i32, ptr %1, align 4
  %53 = sext i32 %52 to i64
  %54 = getelementptr inbounds %struct.switch_record_t, ptr %51, i64 %53
  %55 = getelementptr inbounds nuw %struct.switch_record_t, ptr %54, i32 0, i32 3
  call void @slurm_bit_free(ptr noundef %55)
  br label %56

56:                                               ; preds = %50, %42
  %57 = load ptr, ptr @switch_record_table, align 8
  %58 = load i32, ptr %1, align 4
  %59 = sext i32 %58 to i64
  %60 = getelementptr inbounds %struct.switch_record_t, ptr %57, i64 %59
  %61 = getelementptr inbounds nuw %struct.switch_record_t, ptr %60, i32 0, i32 3
  store ptr null, ptr %61, align 8
  br label %62

62:                                               ; preds = %56
  br label %63

63:                                               ; preds = %62
  br label %64

64:                                               ; preds = %63
  %65 = load i32, ptr %1, align 4
  %66 = add nsw i32 %65, 1
  store i32 %66, ptr %1, align 4
  br label %6, !llvm.loop !8

67:                                               ; preds = %10
  call void @slurm_xfree(ptr noundef @switch_record_table)
  store i32 0, ptr @switch_record_cnt, align 4
  store i32 0, ptr @switch_levels, align 4
  br label %68

68:                                               ; preds = %67, %4
  ret void
}