; Function Attrs: nounwind uwtable
define dso_local void @switch_record_table_destroy() local_unnamed_addr #0 {
  %1 = load ptr, ptr @switch_record_table, align 8
  %.not = icmp eq ptr %1, null
  br i1 %.not, label %26, label %.preheader

.preheader:                                       ; preds = %0
  %2 = load i32, ptr @switch_record_cnt, align 4
  %3 = icmp sgt i32 %2, 0
  br i1 %3, label %.lr.ph, label %._crit_edge

._crit_edge:                                      ; preds = %20, %.preheader
  tail call void @slurm_xfree(ptr noundef nonnull @switch_record_table) #7
  store i32 0, ptr @switch_record_cnt, align 4
  store i32 0, ptr @switch_levels, align 4
  br label %26

.lr.ph:                                           ; preds = %.preheader, %20
  %indvars.iv = phi i64 [ %indvars.iv.next, %20 ], [ 0, %.preheader ]
  %4 = load ptr, ptr @switch_record_table, align 8
  %5 = getelementptr inbounds nuw %struct.switch_record_t, ptr %4, i64 %indvars.iv, i32 2
  tail call void @slurm_xfree(ptr noundef nonnull %5) #7
  %6 = load ptr, ptr @switch_record_table, align 8
  %7 = getelementptr inbounds nuw %struct.switch_record_t, ptr %6, i64 %indvars.iv, i32 4
  tail call void @slurm_xfree(ptr noundef nonnull %7) #7
  %8 = load ptr, ptr @switch_record_table, align 8
  %9 = getelementptr inbounds nuw %struct.switch_record_t, ptr %8, i64 %indvars.iv, i32 8
  tail call void @slurm_xfree(ptr noundef nonnull %9) #7
  %10 = load ptr, ptr @switch_record_table, align 8
  %11 = getelementptr inbounds nuw %struct.switch_record_t, ptr %10, i64 %indvars.iv, i32 9
  tail call void @slurm_xfree(ptr noundef nonnull %11) #7
  %12 = load ptr, ptr @switch_record_table, align 8
  %13 = getelementptr inbounds nuw %struct.switch_record_t, ptr %12, i64 %indvars.iv, i32 10
  tail call void @slurm_xfree(ptr noundef nonnull %13) #7
  %14 = load ptr, ptr @switch_record_table, align 8
  %15 = getelementptr inbounds nuw %struct.switch_record_t, ptr %14, i64 %indvars.iv, i32 11
  tail call void @slurm_xfree(ptr noundef nonnull %15) #7
  %16 = load ptr, ptr @switch_record_table, align 8
  %17 = getelementptr inbounds nuw %struct.switch_record_t, ptr %16, i64 %indvars.iv, i32 3
  %18 = load ptr, ptr %17, align 8
  %.not11 = icmp eq ptr %18, null
  br i1 %.not11, label %20, label %19

19:                                               ; preds = %.lr.ph
  tail call void @slurm_bit_free(ptr noundef nonnull %17) #7
  %.pre = load ptr, ptr @switch_record_table, align 8
  br label %20

20:                                               ; preds = %19, %.lr.ph
  %21 = phi ptr [ %.pre, %19 ], [ %16, %.lr.ph ]
  %22 = getelementptr inbounds nuw %struct.switch_record_t, ptr %21, i64 %indvars.iv, i32 3
  store ptr null, ptr %22, align 8
  %indvars.iv.next = add nuw nsw i64 %indvars.iv, 1
  %23 = load i32, ptr @switch_record_cnt, align 4
  %24 = sext i32 %23 to i64
  %25 = icmp slt i64 %indvars.iv.next, %24
  br i1 %25, label %.lr.ph, label %._crit_edge, !llvm.loop !8

26:                                               ; preds = %0, %._crit_edge
  ret void
}